; Function Attrs: mustprogress nofree nounwind memory(readwrite, inaccessiblemem: none) uwtable
define hidden void @_ZN6google8protobuf17ReplaceCharactersEPNSt7__cxx1112basic_stringIcSt11char_traitsIcESaIcEEEPKcc(ptr noundef readonly captures(none) %0, ptr noundef readonly captures(none) %1, i8 noundef signext %2) local_unnamed_addr #3 {
  %4 = load ptr, ptr %0, align 8, !tbaa !3
  %5 = tail call noundef ptr @strpbrk(ptr noundef %4, ptr noundef %1) #29
  %.not10 = icmp eq ptr %5, null
  br i1 %.not10, label %._crit_edge, label %.lr.ph

.lr.ph:                                           ; preds = %3
  %6 = ptrtoint ptr %4 to i64
  br label %7

7:                                                ; preds = %.lr.ph, %7
  %.011 = phi ptr [ %5, %.lr.ph ], [ %13, %7 ]
  %8 = ptrtoint ptr %.011 to i64
  %9 = sub i64 %8, %6
  %10 = load ptr, ptr %0, align 8, !tbaa !3
  %11 = getelementptr inbounds nuw i8, ptr %10, i64 %9
  store i8 %2, ptr %11, align 1, !tbaa !11
  %12 = getelementptr inbounds nuw i8, ptr %.011, i64 1
  %13 = tail call noundef ptr @strpbrk(ptr noundef nonnull %12, ptr noundef %1) #29
  %.not = icmp eq ptr %13, null
  br i1 %.not, label %._crit_edge, label %7, !llvm.loop !12

._crit_edge:                                      ; preds = %7, %3
  ret void
}